target datalayout = "e-m:e-p270:32:32-p271:32:32-p272:64:64-i64:64-i128:128-f80:128-n8:16:32:64-S128"
target triple = "x86_64-pc-linux-gnu"

%"class.icu_77::ChineseCalendar" = type { %"class.icu_77::Calendar", i8, [7 x i8] }
%"class.icu_77::Calendar" = type <{ %"class.icu_77::UObject", [24 x i32], [24 x i8], i8, [7 x i8], double, ptr, i8, i16, i8, i32, i32, i32, i8, i8, i16, [4 x i8], ptr, ptr }>
%"class.icu_77::UObject" = type { ptr }
%"class.icu_77::Locale" = type <{ %"class.icu_77::UObject", [12 x i8], [6 x i8], [4 x i8], [2 x i8], i32, [4 x i8], ptr, [157 x i8], [3 x i8], ptr, i8, [7 x i8] }>

@_ZN6icu_7712_GLOBAL__N_126gSystemDefaultCenturyStartE = internal global double 0x10000000000000, align 8
@_ZN6icu_7712_GLOBAL__N_130gSystemDefaultCenturyStartYearE = internal global i32 -1, align 4
@.str.2 = private unnamed_addr constant [18 x i8] c"@calendar=chinese\00", align 1
@_ZN6icu_7715ChineseCalendarC1ERKNS_6LocaleER10UErrorCode = unnamed_addr alias void (ptr, ptr, ptr), ptr @_ZN6icu_7715ChineseCalendarC2ERKNS_6LocaleER10UErrorCode
@_ZN6icu_7715ChineseCalendarD1Ev = unnamed_addr alias void (ptr), ptr @_ZN6icu_7715ChineseCalendarD2Ev

; Function Attrs: inlinehint mustprogress uwtable
define linkonce_odr noundef double @_ZNK6icu_778Calendar7getTimeER10UErrorCode(ptr noundef nonnull align 8 dereferenceable(192) %0, ptr noundef nonnull align 4 dereferenceable(4) %1) #8 comdat align 2 {
  %3 = alloca ptr, align 8
  %4 = alloca ptr, align 8
  store ptr %0, ptr %3, align 8, !tbaa !36
  store ptr %1, ptr %4, align 8, !tbaa !10
  %5 = load ptr, ptr %3, align 8
  %6 = load ptr, ptr %4, align 8, !tbaa !10
  %7 = call noundef double @_ZNK6icu_778Calendar15getTimeInMillisER10UErrorCode(ptr noundef nonnull align 8 dereferenceable(192) %5, ptr noundef nonnull align 4 dereferenceable(4) %6)
  ret double %7
}

; Function Attrs: mustprogress uwtable
define void @_ZN6icu_7715ChineseCalendar3addE19UCalendarDateFieldsiR10UErrorCode(ptr noundef nonnull align 8 dereferenceable(193) %0, i32 noundef %1, i32 noundef %2, ptr noundef nonnull align 4 dereferenceable(4) %3) unnamed_addr #0 align 2 {
  %5 = alloca ptr, align 8
  %6 = alloca i32, align 4
  %7 = alloca i32, align 4
  %8 = alloca ptr, align 8
  %9 = alloca i32, align 4
  %10 = alloca i32, align 4
  %11 = alloca i32, align 4
  %12 = alloca i32, align 4
  store ptr %0, ptr %5, align 8, !tbaa !3
  store i32 %1, ptr %6, align 4, !tbaa !25
  store i32 %2, ptr %7, align 4, !tbaa !29
  store ptr %3, ptr %8, align 8, !tbaa !10
  %13 = load ptr, ptr %5, align 8
  %14 = load i32, ptr %6, align 4, !tbaa !25
  switch i32 %14, label %52 [
    i32 2, label %15
    i32 23, label %15
  ]

15:                                               ; preds = %4, %4
  %16 = load i32, ptr %7, align 4, !tbaa !29
  %17 = icmp ne i32 %16, 0
  br i1 %17, label %18, label %51

18:                                               ; preds = %15
  call void @llvm.lifetime.start.p0(i64 4, ptr %9) #13
  %19 = load ptr, ptr %8, align 8, !tbaa !10
  %20 = call noundef i32 @_ZNK6icu_778Calendar3getE19UCalendarDateFieldsR10UErrorCode(ptr noundef nonnull align 8 dereferenceable(192) %13, i32 noundef 5, ptr noundef nonnull align 4 dereferenceable(4) %19)
  store i32 %20, ptr %9, align 4, !tbaa !29
  %21 = load ptr, ptr %8, align 8, !tbaa !10
  %22 = load i32, ptr %21, align 4, !tbaa !30
  %23 = call noundef signext i8 @_ZL9U_FAILURE10UErrorCode(i32 noundef %22)
  %24 = icmp ne i8 %23, 0
  br i1 %24, label %25, label %26

25:                                               ; preds = %18
  store i32 2, ptr %10, align 4
  br label %48

26:                                               ; preds = %18
  call void @llvm.lifetime.start.p0(i64 4, ptr %11) #13
  %27 = load ptr, ptr %8, align 8, !tbaa !10
  %28 = call noundef i32 @_ZNK6icu_778Calendar3getE19UCalendarDateFieldsR10UErrorCode(ptr noundef nonnull align 8 dereferenceable(192) %13, i32 noundef 20, ptr noundef nonnull align 4 dereferenceable(4) %27)
  %29 = sub nsw i32 %28, 2440588
  store i32 %29, ptr %11, align 4, !tbaa !29
  %30 = load ptr, ptr %8, align 8, !tbaa !10
  %31 = load i32, ptr %30, align 4, !tbaa !30
  %32 = call noundef signext i8 @_ZL9U_FAILURE10UErrorCode(i32 noundef %31)
  %33 = icmp ne i8 %32, 0
  br i1 %33, label %34, label %35

34:                                               ; preds = %26
  store i32 2, ptr %10, align 4
  br label %47

35:                                               ; preds = %26
  call void @llvm.lifetime.start.p0(i64 4, ptr %12) #13
  %36 = load i32, ptr %11, align 4, !tbaa !29
  %37 = load i32, ptr %9, align 4, !tbaa !29
  %38 = sub nsw i32 %36, %37
  %39 = add nsw i32 %38, 1
  store i32 %39, ptr %12, align 4, !tbaa !29
  %40 = load i32, ptr %12, align 4, !tbaa !29
  %41 = load i32, ptr %9, align 4, !tbaa !29
  %42 = load i32, ptr %7, align 4, !tbaa !29
  %43 = load ptr, ptr %8, align 8, !tbaa !10
  %44 = load ptr, ptr %13, align 8, !tbaa !11
  %45 = getelementptr inbounds ptr, ptr %44, i64 56
  %46 = load ptr, ptr %45, align 8
  call void %46(ptr noundef nonnull align 8 dereferenceable(193) %13, i32 noundef %40, i32 noundef %41, i32 noundef %42, ptr noundef nonnull align 4 dereferenceable(4) %43)
  call void @llvm.lifetime.end.p0(i64 4, ptr %12) #13
  store i32 0, ptr %10, align 4
  br label %47

47:                                               ; preds = %35, %34
  call void @llvm.lifetime.end.p0(i64 4, ptr %11) #13
  br label %48

48:                                               ; preds = %47, %25
  call void @llvm.lifetime.end.p0(i64 4, ptr %9) #13
  %49 = load i32, ptr %10, align 4
  switch i32 %49, label %57 [
    i32 0, label %50
    i32 2, label %56
  ]

50:                                               ; preds = %48
  br label %51

51:                                               ; preds = %50, %15
  br label %56

52:                                               ; preds = %4
  %53 = load i32, ptr %6, align 4, !tbaa !25
  %54 = load i32, ptr %7, align 4, !tbaa !29
  %55 = load ptr, ptr %8, align 8, !tbaa !10
  call void @_ZN6icu_778Calendar3addE19UCalendarDateFieldsiR10UErrorCode(ptr noundef nonnull align 8 dereferenceable(192) %13, i32 noundef %53, i32 noundef %54, ptr noundef nonnull align 4 dereferenceable(4) %55)
  br label %56

56:                                               ; preds = %52, %51, %48
  ret void

57:                                               ; preds = %48
  unreachable
}

; Function Attrs: inlinehint mustprogress uwtable
define linkonce_odr void @_ZN6icu_778Calendar7setTimeEdR10UErrorCode(ptr noundef nonnull align 8 dereferenceable(192) %0, double noundef %1, ptr noundef nonnull align 4 dereferenceable(4) %2) #8 comdat align 2 {
  %4 = alloca ptr, align 8
  %5 = alloca double, align 8
  %6 = alloca ptr, align 8
  store ptr %0, ptr %4, align 8, !tbaa !36
  store double %1, ptr %5, align 8, !tbaa !47
  store ptr %2, ptr %6, align 8, !tbaa !10
  %7 = load ptr, ptr %4, align 8
  %8 = load double, ptr %5, align 8, !tbaa !47
  %9 = load ptr, ptr %6, align 8, !tbaa !10
  call void @_ZN6icu_778Calendar15setTimeInMillisEdR10UErrorCode(ptr noundef nonnull align 8 dereferenceable(192) %7, double noundef %8, ptr noundef nonnull align 4 dereferenceable(4) %9)
  ret void
}

; Function Attrs: inlinehint mustprogress nounwind uwtable
define internal noundef signext i8 @_ZL9U_FAILURE10UErrorCode(i32 noundef %0) #4 {
  %2 = alloca i32, align 4
  store i32 %0, ptr %2, align 4, !tbaa !30
  %3 = load i32, ptr %2, align 4, !tbaa !30
  %4 = icmp sgt i32 %3, 0
  %5 = zext i1 %4 to i8
  ret i8 %5
}

; Function Attrs: mustprogress uwtable
define internal void @_ZN6icu_7712_GLOBAL__N_130initializeSystemDefaultCenturyEv() #0 personality ptr @__gxx_personality_v0 {
  %1 = alloca i32, align 4
  %2 = alloca %"class.icu_77::ChineseCalendar", align 8
  %3 = alloca %"class.icu_77::Locale", align 8
  %4 = alloca ptr, align 8
  %5 = alloca i32, align 4
  %6 = alloca i32, align 4
  call void @llvm.lifetime.start.p0(i64 4, ptr %1) #13
  store i32 0, ptr %1, align 4, !tbaa !30
  call void @llvm.lifetime.start.p0(i64 200, ptr %2) #13
  call void @llvm.lifetime.start.p0(i64 224, ptr %3) #13
  call void @_ZN6icu_776LocaleC1EPKcS2_S2_S2_(ptr noundef nonnull align 8 dereferenceable(217) %3, ptr noundef @.str.2, ptr noundef null, ptr noundef null, ptr noundef null)
  invoke void @_ZN6icu_7715ChineseCalendarC1ERKNS_6LocaleER10UErrorCode(ptr noundef nonnull align 8 dereferenceable(193) %2, ptr noundef nonnull align 8 dereferenceable(217) %3, ptr noundef nonnull align 4 dereferenceable(4) %1)
          to label %7 unwind label %12

7:                                                ; preds = %0
  call void @_ZN6icu_776LocaleD1Ev(ptr noundef nonnull align 8 dereferenceable(217) %3) #13
  call void @llvm.lifetime.end.p0(i64 224, ptr %3) #13
  %8 = load i32, ptr %1, align 4, !tbaa !30
  %9 = call noundef signext i8 @_ZL9U_FAILURE10UErrorCode(i32 noundef %8)
  %10 = icmp ne i8 %9, 0
  br i1 %10, label %11, label %16

11:                                               ; preds = %7
  store i32 1, ptr %6, align 4
  br label %25

12:                                               ; preds = %0
  %13 = landingpad { ptr, i32 }
          cleanup
  %14 = extractvalue { ptr, i32 } %13, 0
  store ptr %14, ptr %4, align 8
  %15 = extractvalue { ptr, i32 } %13, 1
  store i32 %15, ptr %5, align 4
  call void @_ZN6icu_776LocaleD1Ev(ptr noundef nonnull align 8 dereferenceable(217) %3) #13
  call void @llvm.lifetime.end.p0(i64 224, ptr %3) #13
  br label %32

16:                                               ; preds = %7
  %17 = invoke noundef double @_ZN6icu_778Calendar6getNowEv()
          to label %18 unwind label %28

18:                                               ; preds = %16
  invoke void @_ZN6icu_778Calendar7setTimeEdR10UErrorCode(ptr noundef nonnull align 8 dereferenceable(192) %2, double noundef %17, ptr noundef nonnull align 4 dereferenceable(4) %1)
          to label %19 unwind label %28

19:                                               ; preds = %18
  invoke void @_ZN6icu_7715ChineseCalendar3addE19UCalendarDateFieldsiR10UErrorCode(ptr noundef nonnull align 8 dereferenceable(193) %2, i32 noundef 1, i32 noundef -80, ptr noundef nonnull align 4 dereferenceable(4) %1)
          to label %20 unwind label %28

20:                                               ; preds = %19
  %21 = invoke noundef double @_ZNK6icu_778Calendar7getTimeER10UErrorCode(ptr noundef nonnull align 8 dereferenceable(192) %2, ptr noundef nonnull align 4 dereferenceable(4) %1)
          to label %22 unwind label %28

22:                                               ; preds = %20
  store double %21, ptr @_ZN6icu_7712_GLOBAL__N_126gSystemDefaultCenturyStartE, align 8, !tbaa !47
  %23 = invoke noundef i32 @_ZNK6icu_778Calendar3getE19UCalendarDateFieldsR10UErrorCode(ptr noundef nonnull align 8 dereferenceable(192) %2, i32 noundef 1, ptr noundef nonnull align 4 dereferenceable(4) %1)
          to label %24 unwind label %28

24:                                               ; preds = %22
  store i32 %23, ptr @_ZN6icu_7712_GLOBAL__N_130gSystemDefaultCenturyStartYearE, align 4, !tbaa !29
  store i32 0, ptr %6, align 4
  br label %25

25:                                               ; preds = %24, %11
  call void @_ZN6icu_7715ChineseCalendarD1Ev(ptr noundef nonnull align 8 dereferenceable(193) %2) #13
  call void @llvm.lifetime.end.p0(i64 200, ptr %2) #13
  call void @llvm.lifetime.end.p0(i64 4, ptr %1) #13
  %26 = load i32, ptr %6, align 4
  switch i32 %26, label %38 [
    i32 0, label %27
    i32 1, label %27
  ]

27:                                               ; preds = %25, %25
  ret void

28:                                               ; preds = %22, %20, %19, %18, %16
  %29 = landingpad { ptr, i32 }
          cleanup
  %30 = extractvalue { ptr, i32 } %29, 0
  store ptr %30, ptr %4, align 8
  %31 = extractvalue { ptr, i32 } %29, 1
  store i32 %31, ptr %5, align 4
  call void @_ZN6icu_7715ChineseCalendarD1Ev(ptr noundef nonnull align 8 dereferenceable(193) %2) #13
  br label %32

32:                                               ; preds = %28, %12
  call void @llvm.lifetime.end.p0(i64 200, ptr %2) #13
  call void @llvm.lifetime.end.p0(i64 4, ptr %1) #13
  br label %33

33:                                               ; preds = %32
  %34 = load ptr, ptr %4, align 8
  %35 = load i32, ptr %5, align 4
  %36 = insertvalue { ptr, i32 } poison, ptr %34, 0
  %37 = insertvalue { ptr, i32 } %36, i32 %35, 1
  resume { ptr, i32 } %37

38:                                               ; preds = %25
  unreachable
}